target datalayout = "e-m:e-p270:32:32-p271:32:32-p272:64:64-i64:64-i128:128-f80:128-n8:16:32:64-S128"
target triple = "x86_64-pc-linux-gnu"

%struct.BackendGlobalData = type <{ ptr, ptr, i8, i8, i8, i8, i8, i8, i8, i8, i8, [3 x i8], i32, ptr, ptr, ptr, ptr, ptr, ptr, ptr, ptr, ptr, ptr, ptr, ptr, ptr, i32, %struct.jvmtiCapabilities, i8, [3 x i8], %struct.jvmtiEventCallbacks, ptr, ptr, ptr, ptr, ptr, ptr, ptr, i32, [4 x i8], ptr, i64, i32, [4 x i8], ptr, i32, i32, i8, i8, [6 x i8] }>
%struct.jvmtiCapabilities = type { i64, i64 }
%struct.jvmtiEventCallbacks = type { ptr, ptr, ptr, ptr, ptr, ptr, ptr, ptr, ptr, ptr, ptr, ptr, ptr, ptr, ptr, ptr, ptr, ptr, ptr, ptr, ptr, ptr, ptr, ptr, ptr, ptr, ptr, ptr, ptr, ptr, ptr, ptr, ptr, ptr, ptr, ptr, ptr, ptr, ptr }
%struct.EnumerateArg = type { i8, i16, i32 }

@gdata = external global ptr, align 8
@.str.1 = private unnamed_addr constant [52 x i8] c"src/jdk.jdwp.agent/share/native/libjdwp/debugInit.c\00", align 1
@.str.10 = private unnamed_addr constant [5 x i8] c"MISC\00", align 1
@initComplete = internal global i8 0, align 1
@initMonitor = internal global ptr null, align 8
@.str.20 = private unnamed_addr constant [28 x i8] c"debugInit_reset() beginning\00", align 1
@currentSessionID = internal global i8 0, align 1
@isServer = internal global i8 0, align 1
@transports = internal global ptr null, align 8
@.str.21 = private unnamed_addr constant [29 x i8] c"debugInit_reset() completed.\00", align 1
@.str.55 = private unnamed_addr constant [31 x i8] c"signal initialization complete\00", align 1

; Function Attrs: nounwind uwtable
define internal void @signalInitComplete() #0 {
  %1 = load ptr, ptr @gdata, align 8
  %2 = getelementptr inbounds %struct.BackendGlobalData, ptr %1, i32 0, i32 38
  %3 = load i32, ptr %2, align 8
  %4 = and i32 %3, 8
  %5 = icmp ne i32 %4, 0
  br i1 %5, label %6, label %7

6:                                                ; preds = %0
  call void @log_message_begin(ptr noundef @.str.10, ptr noundef @.str.1, i32 noundef 557)
  call void (ptr, ...) @log_message_end(ptr noundef @.str.55)
  br label %8

7:                                                ; preds = %0
  br label %8

8:                                                ; preds = %7, %6
  %9 = load ptr, ptr @initMonitor, align 8
  call void @debugMonitorEnter(ptr noundef %9)
  store i8 1, ptr @initComplete, align 1
  %10 = load ptr, ptr @initMonitor, align 8
  call void @debugMonitorNotifyAll(ptr noundef %10)
  %11 = load ptr, ptr @initMonitor, align 8
  call void @debugMonitorExit(ptr noundef %11)
  ret void
}

; Function Attrs: nounwind uwtable
define hidden void @debugInit_reset(ptr noundef %0) #0 {
  %2 = alloca ptr, align 8
  %3 = alloca %struct.EnumerateArg, align 4
  store ptr %0, ptr %2, align 8
  %4 = load ptr, ptr @gdata, align 8
  %5 = getelementptr inbounds %struct.BackendGlobalData, ptr %4, i32 0, i32 38
  %6 = load i32, ptr %5, align 8
  %7 = and i32 %6, 8
  %8 = icmp ne i32 %7, 0
  br i1 %8, label %9, label %10

9:                                                ; preds = %1
  call void @log_message_begin(ptr noundef @.str.10, ptr noundef @.str.1, i32 noundef 748)
  call void (ptr, ...) @log_message_end(ptr noundef @.str.20)
  br label %11

10:                                               ; preds = %1
  br label %11

11:                                               ; preds = %10, %9
  %12 = load i8, ptr @currentSessionID, align 1
  %13 = add i8 %12, 1
  store i8 %13, ptr @currentSessionID, align 1
  store i8 0, ptr @initComplete, align 1
  %14 = load i8, ptr @currentSessionID, align 1
  call void @eventHandler_reset(i8 noundef signext %14)
  call void @transport_reset()
  call void @debugDispatch_reset()
  call void @invoker_reset()
  call void @stepControl_reset()
  call void @threadControl_reset()
  call void @util_reset()
  %15 = load ptr, ptr %2, align 8
  call void @commonRef_reset(ptr noundef %15)
  %16 = load i8, ptr @isServer, align 1
  %17 = icmp ne i8 %16, 0
  br i1 %17, label %18, label %24

18:                                               ; preds = %11
  %19 = getelementptr inbounds %struct.EnumerateArg, ptr %3, i32 0, i32 0
  store i8 1, ptr %19, align 4
  %20 = getelementptr inbounds %struct.EnumerateArg, ptr %3, i32 0, i32 1
  store i16 0, ptr %20, align 2
  %21 = getelementptr inbounds %struct.EnumerateArg, ptr %3, i32 0, i32 2
  store i32 0, ptr %21, align 4
  %22 = load ptr, ptr @transports, align 8
  %23 = call zeroext i8 @bagEnumerateOver(ptr noundef %22, ptr noundef @startTransport, ptr noundef %3)
  call void @signalInitComplete()
  call void @transport_waitForConnection()
  br label %25

24:                                               ; preds = %11
  call void @signalInitComplete()
  br label %25

25:                                               ; preds = %24, %18
  %26 = load ptr, ptr @gdata, align 8
  %27 = getelementptr inbounds %struct.BackendGlobalData, ptr %26, i32 0, i32 38
  %28 = load i32, ptr %27, align 8
  %29 = and i32 %28, 8
  %30 = icmp ne i32 %29, 0
  br i1 %30, label %31, label %32

31:                                               ; preds = %25
  call void @log_message_begin(ptr noundef @.str.10, ptr noundef @.str.1, i32 noundef 780)
  call void (ptr, ...) @log_message_end(ptr noundef @.str.21)
  br label %33

32:                                               ; preds = %25
  br label %33

33:                                               ; preds = %32, %31
  ret void
}