; Function Attrs: nounwind uwtable
define hidden void @debugInit_reset(ptr noundef %0) local_unnamed_addr #0 {
  %2 = alloca %struct.EnumerateArg, align 4
  %3 = load ptr, ptr @gdata, align 8
  %4 = getelementptr inbounds i8, ptr %3, i64 528
  %5 = load i32, ptr %4, align 8
  %6 = and i32 %5, 8
  %.not = icmp eq i32 %6, 0
  br i1 %.not, label %8, label %7

7:                                                ; preds = %1
  tail call void @log_message_begin(ptr noundef nonnull @.str.10, ptr noundef nonnull @.str.1, i32 noundef 748) #16
  tail call void (ptr, ...) @log_message_end(ptr noundef nonnull @.str.20) #16
  br label %8

8:                                                ; preds = %1, %7
  %9 = load i8, ptr @currentSessionID, align 1
  %10 = add i8 %9, 1
  store i8 %10, ptr @currentSessionID, align 1
  store i1 false, ptr @initComplete, align 1
  tail call void @eventHandler_reset(i8 noundef signext %10) #16
  tail call void @transport_reset() #16
  tail call void @debugDispatch_reset() #16
  tail call void @invoker_reset() #16
  tail call void @stepControl_reset() #16
  tail call void @threadControl_reset() #16
  tail call void @util_reset() #16
  tail call void @commonRef_reset(ptr noundef %0) #16
  %11 = load i8, ptr @isServer, align 1
  %.not1 = icmp eq i8 %11, 0
  br i1 %.not1, label %25, label %12

12:                                               ; preds = %8
  store i8 1, ptr %2, align 4
  %13 = getelementptr inbounds i8, ptr %2, i64 2
  store i16 0, ptr %13, align 2
  %14 = getelementptr inbounds i8, ptr %2, i64 4
  store i32 0, ptr %14, align 4
  %15 = load ptr, ptr @transports, align 8
  %16 = call zeroext i8 @bagEnumerateOver(ptr noundef %15, ptr noundef nonnull @startTransport, ptr noundef nonnull %2) #16
  %17 = load ptr, ptr @gdata, align 8
  %18 = getelementptr inbounds i8, ptr %17, i64 528
  %19 = load i32, ptr %18, align 8
  %20 = and i32 %19, 8
  %.not.i = icmp eq i32 %20, 0
  br i1 %.not.i, label %signalInitComplete.exit, label %21

21:                                               ; preds = %12
  call void @log_message_begin(ptr noundef nonnull @.str.10, ptr noundef nonnull @.str.1, i32 noundef 557) #16
  call void (ptr, ...) @log_message_end(ptr noundef nonnull @.str.55) #16
  br label %signalInitComplete.exit

signalInitComplete.exit:                          ; preds = %12, %21
  %22 = load ptr, ptr @initMonitor, align 8
  call void @debugMonitorEnter(ptr noundef %22) #16
  store i1 true, ptr @initComplete, align 1
  %23 = load ptr, ptr @initMonitor, align 8
  call void @debugMonitorNotifyAll(ptr noundef %23) #16
  %24 = load ptr, ptr @initMonitor, align 8
  call void @debugMonitorExit(ptr noundef %24) #16
  call void @transport_waitForConnection() #16
  br label %34

25:                                               ; preds = %8
  %26 = load ptr, ptr @gdata, align 8
  %27 = getelementptr inbounds i8, ptr %26, i64 528
  %28 = load i32, ptr %27, align 8
  %29 = and i32 %28, 8
  %.not.i3 = icmp eq i32 %29, 0
  br i1 %.not.i3, label %signalInitComplete.exit4, label %30

30:                                               ; preds = %25
  tail call void @log_message_begin(ptr noundef nonnull @.str.10, ptr noundef nonnull @.str.1, i32 noundef 557) #16
  tail call void (ptr, ...) @log_message_end(ptr noundef nonnull @.str.55) #16
  br label %signalInitComplete.exit4

signalInitComplete.exit4:                         ; preds = %25, %30
  %31 = load ptr, ptr @initMonitor, align 8
  tail call void @debugMonitorEnter(ptr noundef %31) #16
  store i1 true, ptr @initComplete, align 1
  %32 = load ptr, ptr @initMonitor, align 8
  tail call void @debugMonitorNotifyAll(ptr noundef %32) #16
  %33 = load ptr, ptr @initMonitor, align 8
  tail call void @debugMonitorExit(ptr noundef %33) #16
  br label %34

34:                                               ; preds = %signalInitComplete.exit4, %signalInitComplete.exit
  %35 = load ptr, ptr @gdata, align 8
  %36 = getelementptr inbounds i8, ptr %35, i64 528
  %37 = load i32, ptr %36, align 8
  %38 = and i32 %37, 8
  %.not2 = icmp eq i32 %38, 0
  br i1 %.not2, label %40, label %39

39:                                               ; preds = %34
  call void @log_message_begin(ptr noundef nonnull @.str.10, ptr noundef nonnull @.str.1, i32 noundef 780) #16
  call void (ptr, ...) @log_message_end(ptr noundef nonnull @.str.21) #16
  br label %40

40:                                               ; preds = %34, %39
  ret void
}